target datalayout = "e-m:e-p270:32:32-p271:32:32-p272:64:64-i64:64-i128:128-f80:128-n8:16:32:64-S128"
target triple = "x86_64-unknown-linux-gnu"

%struct.MACAddr = type { [6 x i8] }
%struct.of_dpa_flow = type { i32, i32, i32, i32, i64, %struct.of_dpa_flow_key, %struct.of_dpa_flow_key, %struct.of_dpa_flow_action, %struct.anon.13 }
%struct.of_dpa_flow_key = type { i32, i32, i32, %struct.anon, %struct.anon.0, %union.anon, i32 }
%struct.anon = type { i16, %struct.MACAddr, %struct.MACAddr, i16 }
%struct.anon.0 = type { i8, i8, i8, i8 }
%union.anon = type { %struct.anon.6 }
%struct.anon.6 = type { %struct.anon.7, i32, %struct.anon.9, %struct.anon.10 }
%struct.anon.7 = type { %struct.ipv6_addr, %struct.ipv6_addr }
%struct.ipv6_addr = type { %union.anon.8 }
%union.anon.8 = type { [4 x i32] }
%struct.anon.9 = type { i16, i16, i16 }
%struct.anon.10 = type { %struct.ipv6_addr, %struct.MACAddr, %struct.MACAddr }
%struct.of_dpa_flow_action = type { i32, %struct.anon.11, %struct.anon.12 }
%struct.anon.11 = type { i32, i32, i16 }
%struct.anon.12 = type { i16, i32, i8, i16 }
%struct.anon.13 = type { i64, i64, i64, i64, i64 }

@.str.12 = private unnamed_addr constant [58 x i8] c"Must give in_pport and vlan_id to install VLAN tbl entry\0A\00", align 1
@.str.13 = private unnamed_addr constant [38 x i8] c"in_pport (%d) not a front-panel port\0A\00", align 1
@.str.14 = private unnamed_addr constant [32 x i8] c"Goto tbl (%d) must be TERM_MAC\0A\00", align 1
@.str.15 = private unnamed_addr constant [38 x i8] c"Must specify new vlan_id if untagged\0A\00", align 1
@.str.16 = private unnamed_addr constant [45 x i8] c"New vlan_id (%d) must be between 1 and 4095\0A\00", align 1

; Function Attrs: nounwind sspstrong uwtable
define internal i32 @lduw_he_p(ptr noundef %ptr) #0 {
entry:
  %ptr.addr = alloca ptr, align 8
  %r = alloca i16, align 2
  store ptr %ptr, ptr %ptr.addr, align 8
  %0 = load ptr, ptr %ptr.addr, align 8
  call void @llvm.memcpy.p0.p0.i64(ptr align 2 %r, ptr align 1 %0, i64 2, i1 false)
  %1 = load i16, ptr %r, align 2
  %conv = zext i16 %1 to i32
  ret i32 %conv
}

; Function Attrs: nounwind sspstrong uwtable
define internal i32 @ldl_he_p(ptr noundef %ptr) #0 {
entry:
  %ptr.addr = alloca ptr, align 8
  %r = alloca i32, align 4
  store ptr %ptr, ptr %ptr.addr, align 8
  %0 = load ptr, ptr %ptr.addr, align 8
  call void @llvm.memcpy.p0.p0.i64(ptr align 4 %r, ptr align 1 %0, i64 4, i1 false)
  %1 = load i32, ptr %r, align 4
  ret i32 %1
}

; Function Attrs: nounwind sspstrong uwtable
define internal i32 @lduw_le_p(ptr noundef %ptr) #0 {
entry:
  %ptr.addr = alloca ptr, align 8
  store ptr %ptr, ptr %ptr.addr, align 8
  %0 = load ptr, ptr %ptr.addr, align 8
  %call = call i32 @lduw_he_p(ptr noundef %0)
  %conv = trunc i32 %call to i16
  %conv1 = zext i16 %conv to i32
  ret i32 %conv1
}

; Function Attrs: nounwind sspstrong uwtable
define internal i32 @ldl_le_p(ptr noundef %ptr) #0 {
entry:
  %ptr.addr = alloca ptr, align 8
  store ptr %ptr, ptr %ptr.addr, align 8
  %0 = load ptr, ptr %ptr.addr, align 8
  %call = call i32 @ldl_he_p(ptr noundef %0)
  ret i32 %call
}

; Function Attrs: nounwind sspstrong uwtable
define internal ptr @rocker_tlv_data(ptr noundef %tlv) #0 {
entry:
  %tlv.addr = alloca ptr, align 8
  store ptr %tlv, ptr %tlv.addr, align 8
  %0 = load ptr, ptr %tlv.addr, align 8
  %add.ptr = getelementptr i8, ptr %0, i64 8
  ret ptr %add.ptr
}

; Function Attrs: nounwind sspstrong uwtable
define internal zeroext i16 @rocker_tlv_get_le16(ptr noundef %tlv) #0 {
entry:
  %tlv.addr = alloca ptr, align 8
  store ptr %tlv, ptr %tlv.addr, align 8
  %0 = load ptr, ptr %tlv.addr, align 8
  %call = call ptr @rocker_tlv_data(ptr noundef %0)
  %call1 = call i32 @lduw_le_p(ptr noundef %call)
  %conv = trunc i32 %call1 to i16
  ret i16 %conv
}

; Function Attrs: nounwind sspstrong uwtable
define internal zeroext i16 @rocker_tlv_get_u16(ptr noundef %tlv) #0 {
entry:
  %tlv.addr = alloca ptr, align 8
  store ptr %tlv, ptr %tlv.addr, align 8
  %0 = load ptr, ptr %tlv.addr, align 8
  %call = call ptr @rocker_tlv_data(ptr noundef %0)
  %1 = load i16, ptr %call, align 2
  ret i16 %1
}

; Function Attrs: nounwind sspstrong uwtable
define internal i32 @rocker_tlv_get_le32(ptr noundef %tlv) #0 {
entry:
  %tlv.addr = alloca ptr, align 8
  store ptr %tlv, ptr %tlv.addr, align 8
  %0 = load ptr, ptr %tlv.addr, align 8
  %call = call ptr @rocker_tlv_data(ptr noundef %0)
  %call1 = call i32 @ldl_le_p(ptr noundef %call)
  ret i32 %call1
}

; Function Attrs: nounwind sspstrong uwtable
define internal i32 @DPRINTF(ptr noundef %fmt, ...) #0 {
entry:
  %fmt.addr = alloca ptr, align 8
  store ptr %fmt, ptr %fmt.addr, align 8
  ret i32 0
}

; Function Attrs: nounwind sspstrong uwtable
define internal i32 @of_dpa_cmd_add_vlan(ptr noundef %flow, ptr noundef %flow_tlvs) #0 {
entry:
  %retval = alloca i32, align 4
  %flow.addr = alloca ptr, align 8
  %flow_tlvs.addr = alloca ptr, align 8
  %key = alloca ptr, align 8
  %mask = alloca ptr, align 8
  %action = alloca ptr, align 8
  %port = alloca i32, align 4
  %untagged = alloca i8, align 1
  store ptr %flow, ptr %flow.addr, align 8
  store ptr %flow_tlvs, ptr %flow_tlvs.addr, align 8
  %0 = load ptr, ptr %flow.addr, align 8
  %key1 = getelementptr inbounds %struct.of_dpa_flow, ptr %0, i32 0, i32 5
  store ptr %key1, ptr %key, align 8
  %1 = load ptr, ptr %flow.addr, align 8
  %mask2 = getelementptr inbounds %struct.of_dpa_flow, ptr %1, i32 0, i32 6
  store ptr %mask2, ptr %mask, align 8
  %2 = load ptr, ptr %flow.addr, align 8
  %action3 = getelementptr inbounds %struct.of_dpa_flow, ptr %2, i32 0, i32 7
  store ptr %action3, ptr %action, align 8
  %3 = load ptr, ptr %flow_tlvs.addr, align 8
  %arrayidx = getelementptr ptr, ptr %3, i64 6
  %4 = load ptr, ptr %arrayidx, align 8
  %tobool = icmp ne ptr %4, null
  br i1 %tobool, label %lor.lhs.false, label %if.then

lor.lhs.false:                                    ; preds = %entry
  %5 = load ptr, ptr %flow_tlvs.addr, align 8
  %arrayidx4 = getelementptr ptr, ptr %5, i64 14
  %6 = load ptr, ptr %arrayidx4, align 8
  %tobool5 = icmp ne ptr %6, null
  br i1 %tobool5, label %if.end, label %if.then

if.then:                                          ; preds = %lor.lhs.false, %entry
  %call = call i32 (ptr, ...) @DPRINTF(ptr noundef @.str.12)
  store i32 -22, ptr %retval, align 4
  br label %return

if.end:                                           ; preds = %lor.lhs.false
  %7 = load ptr, ptr %key, align 8
  %tbl_id = getelementptr inbounds %struct.of_dpa_flow_key, ptr %7, i32 0, i32 2
  store i32 10, ptr %tbl_id, align 4
  %8 = load ptr, ptr %key, align 8
  %width = getelementptr inbounds %struct.of_dpa_flow_key, ptr %8, i32 0, i32 6
  store i32 2, ptr %width, align 4
  %9 = load ptr, ptr %flow_tlvs.addr, align 8
  %arrayidx6 = getelementptr ptr, ptr %9, i64 6
  %10 = load ptr, ptr %arrayidx6, align 8
  %call7 = call i32 @rocker_tlv_get_le32(ptr noundef %10)
  %11 = load ptr, ptr %key, align 8
  %in_pport = getelementptr inbounds %struct.of_dpa_flow_key, ptr %11, i32 0, i32 0
  store i32 %call7, ptr %in_pport, align 4
  %12 = load ptr, ptr %key, align 8
  %in_pport8 = getelementptr inbounds %struct.of_dpa_flow_key, ptr %12, i32 0, i32 0
  %13 = load i32, ptr %in_pport8, align 4
  %call9 = call zeroext i1 @fp_port_from_pport(i32 noundef %13, ptr noundef %port)
  br i1 %call9, label %if.end13, label %if.then10

if.then10:                                        ; preds = %if.end
  %14 = load ptr, ptr %key, align 8
  %in_pport11 = getelementptr inbounds %struct.of_dpa_flow_key, ptr %14, i32 0, i32 0
  %15 = load i32, ptr %in_pport11, align 4
  %call12 = call i32 (ptr, ...) @DPRINTF(ptr noundef @.str.13, i32 noundef %15)
  store i32 -22, ptr %retval, align 4
  br label %return

if.end13:                                         ; preds = %if.end
  %16 = load ptr, ptr %mask, align 8
  %in_pport14 = getelementptr inbounds %struct.of_dpa_flow_key, ptr %16, i32 0, i32 0
  store i32 -1, ptr %in_pport14, align 4
  %17 = load ptr, ptr %flow_tlvs.addr, align 8
  %arrayidx15 = getelementptr ptr, ptr %17, i64 14
  %18 = load ptr, ptr %arrayidx15, align 8
  %call16 = call zeroext i16 @rocker_tlv_get_u16(ptr noundef %18)
  %19 = load ptr, ptr %key, align 8
  %eth = getelementptr inbounds %struct.of_dpa_flow_key, ptr %19, i32 0, i32 3
  %vlan_id = getelementptr inbounds %struct.anon, ptr %eth, i32 0, i32 0
  store i16 %call16, ptr %vlan_id, align 4
  %20 = load ptr, ptr %flow_tlvs.addr, align 8
  %arrayidx17 = getelementptr ptr, ptr %20, i64 15
  %21 = load ptr, ptr %arrayidx17, align 8
  %tobool18 = icmp ne ptr %21, null
  br i1 %tobool18, label %if.then19, label %if.end24

if.then19:                                        ; preds = %if.end13
  %22 = load ptr, ptr %flow_tlvs.addr, align 8
  %arrayidx20 = getelementptr ptr, ptr %22, i64 15
  %23 = load ptr, ptr %arrayidx20, align 8
  %call21 = call zeroext i16 @rocker_tlv_get_u16(ptr noundef %23)
  %24 = load ptr, ptr %mask, align 8
  %eth22 = getelementptr inbounds %struct.of_dpa_flow_key, ptr %24, i32 0, i32 3
  %vlan_id23 = getelementptr inbounds %struct.anon, ptr %eth22, i32 0, i32 0
  store i16 %call21, ptr %vlan_id23, align 4
  br label %if.end24

if.end24:                                         ; preds = %if.then19, %if.end13
  %25 = load ptr, ptr %key, align 8
  %eth25 = getelementptr inbounds %struct.of_dpa_flow_key, ptr %25, i32 0, i32 3
  %vlan_id26 = getelementptr inbounds %struct.anon, ptr %eth25, i32 0, i32 0
  %26 = load i16, ptr %vlan_id26, align 4
  %tobool27 = icmp ne i16 %26, 0
  br i1 %tobool27, label %if.then28, label %if.else

if.then28:                                        ; preds = %if.end24
  store i8 0, ptr %untagged, align 1
  br label %if.end29

if.else:                                          ; preds = %if.end24
  store i8 1, ptr %untagged, align 1
  br label %if.end29

if.end29:                                         ; preds = %if.else, %if.then28
  %27 = load ptr, ptr %flow_tlvs.addr, align 8
  %arrayidx30 = getelementptr ptr, ptr %27, i64 9
  %28 = load ptr, ptr %arrayidx30, align 8
  %tobool31 = icmp ne ptr %28, null
  br i1 %tobool31, label %if.then32, label %if.end41

if.then32:                                        ; preds = %if.end29
  %29 = load ptr, ptr %flow_tlvs.addr, align 8
  %arrayidx33 = getelementptr ptr, ptr %29, i64 9
  %30 = load ptr, ptr %arrayidx33, align 8
  %call34 = call zeroext i16 @rocker_tlv_get_le16(ptr noundef %30)
  %conv = zext i16 %call34 to i32
  %31 = load ptr, ptr %action, align 8
  %goto_tbl = getelementptr inbounds %struct.of_dpa_flow_action, ptr %31, i32 0, i32 0
  store i32 %conv, ptr %goto_tbl, align 4
  %32 = load ptr, ptr %action, align 8
  %goto_tbl35 = getelementptr inbounds %struct.of_dpa_flow_action, ptr %32, i32 0, i32 0
  %33 = load i32, ptr %goto_tbl35, align 4
  %cmp = icmp ne i32 %33, 20
  br i1 %cmp, label %if.then37, label %if.end40

if.then37:                                        ; preds = %if.then32
  %34 = load ptr, ptr %action, align 8
  %goto_tbl38 = getelementptr inbounds %struct.of_dpa_flow_action, ptr %34, i32 0, i32 0
  %35 = load i32, ptr %goto_tbl38, align 4
  %call39 = call i32 (ptr, ...) @DPRINTF(ptr noundef @.str.14, i32 noundef %35)
  store i32 -22, ptr %retval, align 4
  br label %return

if.end40:                                         ; preds = %if.then32
  br label %if.end41

if.end41:                                         ; preds = %if.end40, %if.end29
  %36 = load i8, ptr %untagged, align 1
  %tobool42 = trunc i8 %36 to i1
  br i1 %tobool42, label %if.then43, label %if.end71

if.then43:                                        ; preds = %if.end41
  %37 = load ptr, ptr %flow_tlvs.addr, align 8
  %arrayidx44 = getelementptr ptr, ptr %37, i64 19
  %38 = load ptr, ptr %arrayidx44, align 8
  %tobool45 = icmp ne ptr %38, null
  br i1 %tobool45, label %if.end48, label %if.then46

if.then46:                                        ; preds = %if.then43
  %call47 = call i32 (ptr, ...) @DPRINTF(ptr noundef @.str.15)
  store i32 -22, ptr %retval, align 4
  br label %return

if.end48:                                         ; preds = %if.then43
  %39 = load ptr, ptr %flow_tlvs.addr, align 8
  %arrayidx49 = getelementptr ptr, ptr %39, i64 19
  %40 = load ptr, ptr %arrayidx49, align 8
  %call50 = call zeroext i16 @rocker_tlv_get_u16(ptr noundef %40)
  %41 = load ptr, ptr %action, align 8
  %apply = getelementptr inbounds %struct.of_dpa_flow_action, ptr %41, i32 0, i32 2
  %new_vlan_id = getelementptr inbounds %struct.anon.12, ptr %apply, i32 0, i32 0
  store i16 %call50, ptr %new_vlan_id, align 4
  %42 = load ptr, ptr %action, align 8
  %apply51 = getelementptr inbounds %struct.of_dpa_flow_action, ptr %42, i32 0, i32 2
  %new_vlan_id52 = getelementptr inbounds %struct.anon.12, ptr %apply51, i32 0, i32 0
  %43 = load i16, ptr %new_vlan_id52, align 4
  %call53 = call zeroext i16 @ntohs(i16 noundef zeroext %43) #11
  %conv54 = zext i16 %call53 to i32
  %cmp55 = icmp sgt i32 1, %conv54
  br i1 %cmp55, label %if.then64, label %lor.lhs.false57

lor.lhs.false57:                                  ; preds = %if.end48
  %44 = load ptr, ptr %action, align 8
  %apply58 = getelementptr inbounds %struct.of_dpa_flow_action, ptr %44, i32 0, i32 2
  %new_vlan_id59 = getelementptr inbounds %struct.anon.12, ptr %apply58, i32 0, i32 0
  %45 = load i16, ptr %new_vlan_id59, align 4
  %call60 = call zeroext i16 @ntohs(i16 noundef zeroext %45) #11
  %conv61 = zext i16 %call60 to i32
  %cmp62 = icmp sgt i32 %conv61, 4095
  br i1 %cmp62, label %if.then64, label %if.end70

if.then64:                                        ; preds = %lor.lhs.false57, %if.end48
  %46 = load ptr, ptr %action, align 8
  %apply65 = getelementptr inbounds %struct.of_dpa_flow_action, ptr %46, i32 0, i32 2
  %new_vlan_id66 = getelementptr inbounds %struct.anon.12, ptr %apply65, i32 0, i32 0
  %47 = load i16, ptr %new_vlan_id66, align 4
  %call67 = call zeroext i16 @ntohs(i16 noundef zeroext %47) #11
  %conv68 = zext i16 %call67 to i32
  %call69 = call i32 (ptr, ...) @DPRINTF(ptr noundef @.str.16, i32 noundef %conv68)
  store i32 -22, ptr %retval, align 4
  br label %return

if.end70:                                         ; preds = %lor.lhs.false57
  br label %if.end71

if.end71:                                         ; preds = %if.end70, %if.end41
  store i32 0, ptr %retval, align 4
  br label %return

return:                                           ; preds = %if.end71, %if.then64, %if.then46, %if.then37, %if.then10, %if.then
  %48 = load i32, ptr %retval, align 4
  ret i32 %48
}