; Function Attrs: nounwind sspstrong uwtable
define internal fastcc range(i32 -22, 1) i32 @of_dpa_cmd_add_vlan(ptr noundef writeonly captures(none) %flow, ptr noundef nonnull readonly captures(none) %flow_tlvs) unnamed_addr #0 {
entry:
  %port = alloca i32, align 4
  %key1 = getelementptr inbounds nuw i8, ptr %flow, i64 24
  %mask2 = getelementptr inbounds nuw i8, ptr %flow, i64 132
  %action3 = getelementptr inbounds nuw i8, ptr %flow, i64 240
  %arrayidx = getelementptr i8, ptr %flow_tlvs, i64 48
  %0 = load ptr, ptr %arrayidx, align 8
  %tobool.not = icmp eq ptr %0, null
  br i1 %tobool.not, label %return, label %lor.lhs.false

lor.lhs.false:                                    ; preds = %entry
  %arrayidx4 = getelementptr i8, ptr %flow_tlvs, i64 112
  %1 = load ptr, ptr %arrayidx4, align 8
  %tobool5.not = icmp eq ptr %1, null
  br i1 %tobool5.not, label %return, label %if.end

if.end:                                           ; preds = %lor.lhs.false
  %tbl_id = getelementptr inbounds nuw i8, ptr %flow, i64 32
  store i32 10, ptr %tbl_id, align 4
  %width = getelementptr inbounds nuw i8, ptr %flow, i64 128
  store i32 2, ptr %width, align 4
  %2 = load ptr, ptr %arrayidx, align 8
  %3 = getelementptr i8, ptr %2, i64 8
  %.val27 = load i32, ptr %3, align 1
  store i32 %.val27, ptr %key1, align 4
  %call9 = call zeroext i1 @fp_port_from_pport(i32 noundef %.val27, ptr noundef nonnull %port) #18
  br i1 %call9, label %if.end13, label %return

if.end13:                                         ; preds = %if.end
  store i32 -1, ptr %mask2, align 4
  %4 = load ptr, ptr %arrayidx4, align 8
  %5 = getelementptr i8, ptr %4, i64 8
  %.val28 = load i16, ptr %5, align 2
  %eth = getelementptr inbounds nuw i8, ptr %flow, i64 36
  store i16 %.val28, ptr %eth, align 4
  %arrayidx17 = getelementptr i8, ptr %flow_tlvs, i64 120
  %6 = load ptr, ptr %arrayidx17, align 8
  %tobool18.not = icmp eq ptr %6, null
  br i1 %tobool18.not, label %if.end24, label %if.then19

if.then19:                                        ; preds = %if.end13
  %7 = getelementptr i8, ptr %6, i64 8
  %.val29 = load i16, ptr %7, align 2
  %eth22 = getelementptr inbounds nuw i8, ptr %flow, i64 144
  store i16 %.val29, ptr %eth22, align 4
  br label %if.end24

if.end24:                                         ; preds = %if.then19, %if.end13
  %tobool27.not = icmp ne i16 %.val28, 0
  %arrayidx30 = getelementptr i8, ptr %flow_tlvs, i64 72
  %8 = load ptr, ptr %arrayidx30, align 8
  %tobool31.not = icmp eq ptr %8, null
  br i1 %tobool31.not, label %if.end41, label %if.then32

if.then32:                                        ; preds = %if.end24
  %9 = getelementptr i8, ptr %8, i64 8
  %.val = load i16, ptr %9, align 1
  %conv = zext i16 %.val to i32
  store i32 %conv, ptr %action3, align 4
  %cmp.not = icmp ne i16 %.val, 20
  %brmerge = select i1 %cmp.not, i1 true, i1 %tobool27.not
  %.mux = select i1 %cmp.not, i32 -22, i32 0
  br i1 %brmerge, label %return, label %if.then43

if.end41:                                         ; preds = %if.end24
  br i1 %tobool27.not, label %return, label %if.then43

if.then43:                                        ; preds = %if.then32, %if.end41
  %arrayidx44 = getelementptr i8, ptr %flow_tlvs, i64 152
  %10 = load ptr, ptr %arrayidx44, align 8
  %tobool45.not = icmp eq ptr %10, null
  br i1 %tobool45.not, label %return, label %if.end48

if.end48:                                         ; preds = %if.then43
  %11 = getelementptr i8, ptr %10, i64 8
  %.val30 = load i16, ptr %11, align 2
  %apply = getelementptr inbounds nuw i8, ptr %flow, i64 256
  store i16 %.val30, ptr %apply, align 4
  %call53 = call zeroext i16 @ntohs(i16 noundef zeroext %.val30) #20
  %12 = add i16 %call53, -4096
  %or.cond = icmp ult i16 %12, -4095
  %spec.select = select i1 %or.cond, i32 -22, i32 0
  br label %return

return:                                           ; preds = %if.end48, %if.then32, %if.then43, %if.end, %entry, %lor.lhs.false, %if.end41
  %retval.0 = phi i32 [ 0, %if.end41 ], [ -22, %lor.lhs.false ], [ -22, %entry ], [ -22, %if.end ], [ %.mux, %if.then32 ], [ -22, %if.then43 ], [ %spec.select, %if.end48 ]
  ret i32 %retval.0
}